target datalayout = "e-m:e-p270:32:32-p271:32:32-p272:64:64-i64:64-i128:128-f80:128-n8:16:32:64-S128"
target triple = "x86_64-pc-linux-gnu"

%struct.xllist = type { ptr, ptr, i32, i32, i32 }
%struct.GlobalTransactionData = type { ptr, i32, i64, i64, i64, i32, i32, i32, i8, i8, i8, [200 x i8] }
%struct.PGPROC = type { %struct.dlist_node, ptr, ptr, i32, %struct.Latch, i32, i32, i32, i32, %struct.anon, i32, i32, i32, i8, i8, i8, i8, %struct.proclist_node, %struct.proclist_node, ptr, ptr, i32, i32, %struct.pg_atomic_uint64, i32, i8, i64, i32, %struct.dlist_node, [16 x %struct.dlist_head], %struct.XidCacheStatus, %struct.XidCache, i8, %struct.pg_atomic_uint32, i32, i32, i8, %struct.pg_atomic_uint32, i32, i32, i64, i64, %struct.LWLock, ptr, ptr, i8, i32, ptr, %struct.dlist_head, %struct.dlist_node }
%struct.Latch = type { i32, i32, i8, i32 }
%struct.anon = type { i32, i32 }
%struct.proclist_node = type { i32, i32 }
%struct.pg_atomic_uint64 = type { i64 }
%struct.XidCacheStatus = type { i8, i8 }
%struct.XidCache = type { [64 x i32] }
%struct.pg_atomic_uint32 = type { i32 }
%struct.LWLock = type { i16, %struct.pg_atomic_uint32, %struct.proclist_head }
%struct.proclist_head = type { i32, i32 }
%struct.dlist_head = type { %struct.dlist_node }
%struct.dlist_node = type { ptr, ptr }
%struct.PROC_HDR = type { ptr, ptr, ptr, ptr, i32, %struct.dlist_head, %struct.dlist_head, %struct.dlist_head, %struct.dlist_head, %struct.pg_atomic_uint32, %struct.pg_atomic_uint32, i32, i32, i32, i32 }
%union.LWLockPadded = type { %struct.LWLock, [112 x i8] }
%struct.xl_xact_prepare = type { i32, i32, i32, i32, i64, i32, i32, i32, i32, i32, i32, i32, i8, i16, i64, i64 }
%struct.StateFileChunk = type { ptr, i32, ptr }
%struct.TwoPhaseRecordOnDisk = type { i32, i8, i16 }

@ProcGlobal = external global ptr, align 8
@MyLockedGxact = internal global ptr null, align 8
@MainLWLockArray = external global ptr, align 8
@.str.2 = private unnamed_addr constant [11 x i8] c"twophase.c\00", align 1
@records = internal global %struct.xllist zeroinitializer, align 8
@replorigin_session_origin = external global i16, align 2
@replorigin_session_origin_lsn = external global i64, align 8
@replorigin_session_origin_timestamp = external global i64, align 8
@.str.13 = private unnamed_addr constant [45 x i8] c"two-phase state file maximum length exceeded\00", align 1
@__func__.EndPrepare = private unnamed_addr constant [11 x i8] c"EndPrepare\00", align 1
@CritSectionCount = external global i32, align 4
@MyProc = external global ptr, align 8
@ProcLastRecPtr = external global i64, align 8

; Function Attrs: nounwind uwtable
define internal void @save_state_data(ptr noundef %0, i32 noundef %1) #0 {
  %3 = alloca ptr, align 8
  %4 = alloca i32, align 4
  %5 = alloca i32, align 4
  store ptr %0, ptr %3, align 8
  store i32 %1, ptr %4, align 4
  call void @llvm.lifetime.start.p0(i64 4, ptr %5) #12
  %6 = load i32, ptr %4, align 4
  %7 = zext i32 %6 to i64
  %8 = add i64 %7, 7
  %9 = and i64 %8, -8
  %10 = trunc i64 %9 to i32
  store i32 %10, ptr %5, align 4
  %11 = load i32, ptr %5, align 4
  %12 = load i32, ptr getelementptr inbounds nuw (%struct.xllist, ptr @records, i32 0, i32 3), align 4
  %13 = icmp ugt i32 %11, %12
  br i1 %13, label %14, label %39

14:                                               ; preds = %2
  %15 = call ptr @palloc0(i64 noundef 24)
  %16 = load ptr, ptr getelementptr inbounds nuw (%struct.xllist, ptr @records, i32 0, i32 1), align 8
  %17 = getelementptr inbounds nuw %struct.StateFileChunk, ptr %16, i32 0, i32 2
  store ptr %15, ptr %17, align 8
  %18 = load ptr, ptr getelementptr inbounds nuw (%struct.xllist, ptr @records, i32 0, i32 1), align 8
  %19 = getelementptr inbounds nuw %struct.StateFileChunk, ptr %18, i32 0, i32 2
  %20 = load ptr, ptr %19, align 8
  store ptr %20, ptr getelementptr inbounds nuw (%struct.xllist, ptr @records, i32 0, i32 1), align 8
  %21 = load ptr, ptr getelementptr inbounds nuw (%struct.xllist, ptr @records, i32 0, i32 1), align 8
  %22 = getelementptr inbounds nuw %struct.StateFileChunk, ptr %21, i32 0, i32 1
  store i32 0, ptr %22, align 8
  %23 = load ptr, ptr getelementptr inbounds nuw (%struct.xllist, ptr @records, i32 0, i32 1), align 8
  %24 = getelementptr inbounds nuw %struct.StateFileChunk, ptr %23, i32 0, i32 2
  store ptr null, ptr %24, align 8
  %25 = load i32, ptr getelementptr inbounds nuw (%struct.xllist, ptr @records, i32 0, i32 2), align 8
  %26 = add i32 %25, 1
  store i32 %26, ptr getelementptr inbounds nuw (%struct.xllist, ptr @records, i32 0, i32 2), align 8
  %27 = load i32, ptr %5, align 4
  %28 = icmp ugt i32 %27, 512
  br i1 %28, label %29, label %31

29:                                               ; preds = %14
  %30 = load i32, ptr %5, align 4
  br label %32

31:                                               ; preds = %14
  br label %32

32:                                               ; preds = %31, %29
  %33 = phi i32 [ %30, %29 ], [ 512, %31 ]
  store i32 %33, ptr getelementptr inbounds nuw (%struct.xllist, ptr @records, i32 0, i32 3), align 4
  %34 = load i32, ptr getelementptr inbounds nuw (%struct.xllist, ptr @records, i32 0, i32 3), align 4
  %35 = zext i32 %34 to i64
  %36 = call ptr @palloc(i64 noundef %35)
  %37 = load ptr, ptr getelementptr inbounds nuw (%struct.xllist, ptr @records, i32 0, i32 1), align 8
  %38 = getelementptr inbounds nuw %struct.StateFileChunk, ptr %37, i32 0, i32 0
  store ptr %36, ptr %38, align 8
  br label %39

39:                                               ; preds = %32, %2
  %40 = load ptr, ptr getelementptr inbounds nuw (%struct.xllist, ptr @records, i32 0, i32 1), align 8
  %41 = getelementptr inbounds nuw %struct.StateFileChunk, ptr %40, i32 0, i32 0
  %42 = load ptr, ptr %41, align 8
  %43 = load ptr, ptr getelementptr inbounds nuw (%struct.xllist, ptr @records, i32 0, i32 1), align 8
  %44 = getelementptr inbounds nuw %struct.StateFileChunk, ptr %43, i32 0, i32 1
  %45 = load i32, ptr %44, align 8
  %46 = zext i32 %45 to i64
  %47 = getelementptr inbounds nuw i8, ptr %42, i64 %46
  %48 = load ptr, ptr %3, align 8
  %49 = load i32, ptr %4, align 4
  %50 = zext i32 %49 to i64
  call void @llvm.memcpy.p0.p0.i64(ptr align 1 %47, ptr align 1 %48, i64 %50, i1 false)
  %51 = load i32, ptr %5, align 4
  %52 = load ptr, ptr getelementptr inbounds nuw (%struct.xllist, ptr @records, i32 0, i32 1), align 8
  %53 = getelementptr inbounds nuw %struct.StateFileChunk, ptr %52, i32 0, i32 1
  %54 = load i32, ptr %53, align 8
  %55 = add i32 %54, %51
  store i32 %55, ptr %53, align 8
  %56 = load i32, ptr %5, align 4
  %57 = load i32, ptr getelementptr inbounds nuw (%struct.xllist, ptr @records, i32 0, i32 3), align 4
  %58 = sub i32 %57, %56
  store i32 %58, ptr getelementptr inbounds nuw (%struct.xllist, ptr @records, i32 0, i32 3), align 4
  %59 = load i32, ptr %5, align 4
  %60 = load i32, ptr getelementptr inbounds nuw (%struct.xllist, ptr @records, i32 0, i32 4), align 8
  %61 = add i32 %60, %59
  store i32 %61, ptr getelementptr inbounds nuw (%struct.xllist, ptr @records, i32 0, i32 4), align 8
  call void @llvm.lifetime.end.p0(i64 4, ptr %5) #12
  ret void
}

; Function Attrs: nounwind uwtable
define internal void @MarkAsPrepared(ptr noundef %0, i1 noundef zeroext %1) #0 {
  %3 = alloca ptr, align 8
  %4 = alloca i8, align 1
  store ptr %0, ptr %3, align 8
  %5 = zext i1 %1 to i8
  store i8 %5, ptr %4, align 1
  %6 = load i8, ptr %4, align 1, !range !4, !noundef !5
  %7 = trunc i8 %6 to i1
  br i1 %7, label %12, label %8

8:                                                ; preds = %2
  %9 = load ptr, ptr @MainLWLockArray, align 8
  %10 = getelementptr inbounds %union.LWLockPadded, ptr %9, i64 18
  %11 = call zeroext i1 @LWLockAcquire(ptr noundef %10, i32 noundef 0)
  br label %12

12:                                               ; preds = %8, %2
  %13 = load ptr, ptr %3, align 8
  %14 = getelementptr inbounds nuw %struct.GlobalTransactionData, ptr %13, i32 0, i32 8
  store i8 1, ptr %14, align 4
  %15 = load i8, ptr %4, align 1, !range !4, !noundef !5
  %16 = trunc i8 %15 to i1
  br i1 %16, label %20, label %17

17:                                               ; preds = %12
  %18 = load ptr, ptr @MainLWLockArray, align 8
  %19 = getelementptr inbounds %union.LWLockPadded, ptr %18, i64 18
  call void @LWLockRelease(ptr noundef %19)
  br label %20

20:                                               ; preds = %17, %12
  %21 = load ptr, ptr @ProcGlobal, align 8
  %22 = getelementptr inbounds nuw %struct.PROC_HDR, ptr %21, i32 0, i32 0
  %23 = load ptr, ptr %22, align 8
  %24 = load ptr, ptr %3, align 8
  %25 = getelementptr inbounds nuw %struct.GlobalTransactionData, ptr %24, i32 0, i32 1
  %26 = load i32, ptr %25, align 8
  %27 = sext i32 %26 to i64
  %28 = getelementptr inbounds %struct.PGPROC, ptr %23, i64 %27
  call void @ProcArrayAdd(ptr noundef %28)
  ret void
}

; Function Attrs: nounwind uwtable
define dso_local void @RegisterTwoPhaseRecord(i8 noundef zeroext %0, i16 noundef zeroext %1, ptr noundef %2, i32 noundef %3) #0 {
  %5 = alloca i8, align 1
  %6 = alloca i16, align 2
  %7 = alloca ptr, align 8
  %8 = alloca i32, align 4
  %9 = alloca %struct.TwoPhaseRecordOnDisk, align 4
  store i8 %0, ptr %5, align 1
  store i16 %1, ptr %6, align 2
  store ptr %2, ptr %7, align 8
  store i32 %3, ptr %8, align 4
  call void @llvm.lifetime.start.p0(i64 8, ptr %9) #12
  %10 = load i8, ptr %5, align 1
  %11 = getelementptr inbounds nuw %struct.TwoPhaseRecordOnDisk, ptr %9, i32 0, i32 1
  store i8 %10, ptr %11, align 4
  %12 = load i16, ptr %6, align 2
  %13 = getelementptr inbounds nuw %struct.TwoPhaseRecordOnDisk, ptr %9, i32 0, i32 2
  store i16 %12, ptr %13, align 2
  %14 = load i32, ptr %8, align 4
  %15 = getelementptr inbounds nuw %struct.TwoPhaseRecordOnDisk, ptr %9, i32 0, i32 0
  store i32 %14, ptr %15, align 4
  call void @save_state_data(ptr noundef %9, i32 noundef 8)
  %16 = load i32, ptr %8, align 4
  %17 = icmp ugt i32 %16, 0
  br i1 %17, label %18, label %21

18:                                               ; preds = %4
  %19 = load ptr, ptr %7, align 8
  %20 = load i32, ptr %8, align 4
  call void @save_state_data(ptr noundef %19, i32 noundef %20)
  br label %21

21:                                               ; preds = %18, %4
  call void @llvm.lifetime.end.p0(i64 8, ptr %9) #12
  ret void
}

; Function Attrs: nounwind uwtable
define dso_local void @EndPrepare(ptr noundef %0) #0 {
  %2 = alloca ptr, align 8
  %3 = alloca ptr, align 8
  %4 = alloca ptr, align 8
  %5 = alloca i8, align 1
  store ptr %0, ptr %2, align 8
  call void @llvm.lifetime.start.p0(i64 8, ptr %3) #12
  call void @llvm.lifetime.start.p0(i64 8, ptr %4) #12
  call void @llvm.lifetime.start.p0(i64 1, ptr %5) #12
  call void @RegisterTwoPhaseRecord(i8 noundef zeroext 0, i16 noundef zeroext 0, ptr noundef null, i32 noundef 0)
  %6 = load ptr, ptr @records, align 8
  %7 = getelementptr inbounds nuw %struct.StateFileChunk, ptr %6, i32 0, i32 0
  %8 = load ptr, ptr %7, align 8
  store ptr %8, ptr %3, align 8
  %9 = load i32, ptr getelementptr inbounds nuw (%struct.xllist, ptr @records, i32 0, i32 4), align 8
  %10 = zext i32 %9 to i64
  %11 = add i64 %10, 4
  %12 = trunc i64 %11 to i32
  %13 = load ptr, ptr %3, align 8
  %14 = getelementptr inbounds nuw %struct.xl_xact_prepare, ptr %13, i32 0, i32 1
  store i32 %12, ptr %14, align 4
  %15 = load i16, ptr @replorigin_session_origin, align 2
  %16 = zext i16 %15 to i32
  %17 = icmp ne i32 %16, 0
  br i1 %17, label %18, label %22

18:                                               ; preds = %1
  %19 = load i16, ptr @replorigin_session_origin, align 2
  %20 = zext i16 %19 to i32
  %21 = icmp ne i32 %20, 65535
  br label %22

22:                                               ; preds = %18, %1
  %23 = phi i1 [ false, %1 ], [ %21, %18 ]
  %24 = zext i1 %23 to i8
  store i8 %24, ptr %5, align 1
  %25 = load i8, ptr %5, align 1, !range !4, !noundef !5
  %26 = trunc i8 %25 to i1
  br i1 %26, label %27, label %34

27:                                               ; preds = %22
  %28 = load i64, ptr @replorigin_session_origin_lsn, align 8
  %29 = load ptr, ptr %3, align 8
  %30 = getelementptr inbounds nuw %struct.xl_xact_prepare, ptr %29, i32 0, i32 14
  store i64 %28, ptr %30, align 8
  %31 = load i64, ptr @replorigin_session_origin_timestamp, align 8
  %32 = load ptr, ptr %3, align 8
  %33 = getelementptr inbounds nuw %struct.xl_xact_prepare, ptr %32, i32 0, i32 15
  store i64 %31, ptr %33, align 8
  br label %34

34:                                               ; preds = %27, %22
  %35 = load ptr, ptr %3, align 8
  %36 = getelementptr inbounds nuw %struct.xl_xact_prepare, ptr %35, i32 0, i32 1
  %37 = load i32, ptr %36, align 4
  %38 = zext i32 %37 to i64
  %39 = icmp ugt i64 %38, 1073741823
  br i1 %39, label %40, label %52

40:                                               ; preds = %34
  br label %41

41:                                               ; preds = %40
  br i1 true, label %42, label %44

42:                                               ; preds = %41
  %43 = call zeroext i1 @errstart_cold(i32 noundef 21, ptr noundef null) #13
  br i1 %43, label %46, label %49

44:                                               ; preds = %41
  %45 = call zeroext i1 @errstart(i32 noundef 21, ptr noundef null)
  br i1 %45, label %46, label %49

46:                                               ; preds = %44, %42
  %47 = call i32 @errcode(i32 noundef 261)
  %48 = call i32 (ptr, ...) @errmsg(ptr noundef @.str.13)
  call void @errfinish(ptr noundef @.str.2, i32 noundef 1174, ptr noundef @__func__.EndPrepare)
  br label %49

49:                                               ; preds = %46, %44, %42
  unreachable

50:                                               ; No predecessors!
  br label %51

51:                                               ; preds = %50
  br label %52

52:                                               ; preds = %51, %34
  %53 = load i32, ptr getelementptr inbounds nuw (%struct.xllist, ptr @records, i32 0, i32 2), align 8
  call void @XLogEnsureRecordSpace(i32 noundef 0, i32 noundef %53)
  %54 = load volatile i32, ptr @CritSectionCount, align 4
  %55 = add i32 %54, 1
  store volatile i32 %55, ptr @CritSectionCount, align 4
  %56 = load ptr, ptr @MyProc, align 8
  %57 = getelementptr inbounds nuw %struct.PGPROC, ptr %56, i32 0, i32 24
  %58 = load i32, ptr %57, align 8
  %59 = or i32 %58, 1
  store i32 %59, ptr %57, align 8
  call void @XLogBeginInsert()
  %60 = load ptr, ptr @records, align 8
  store ptr %60, ptr %4, align 8
  br label %61

61:                                               ; preds = %71, %52
  %62 = load ptr, ptr %4, align 8
  %63 = icmp ne ptr %62, null
  br i1 %63, label %64, label %75

64:                                               ; preds = %61
  %65 = load ptr, ptr %4, align 8
  %66 = getelementptr inbounds nuw %struct.StateFileChunk, ptr %65, i32 0, i32 0
  %67 = load ptr, ptr %66, align 8
  %68 = load ptr, ptr %4, align 8
  %69 = getelementptr inbounds nuw %struct.StateFileChunk, ptr %68, i32 0, i32 1
  %70 = load i32, ptr %69, align 8
  call void @XLogRegisterData(ptr noundef %67, i32 noundef %70)
  br label %71

71:                                               ; preds = %64
  %72 = load ptr, ptr %4, align 8
  %73 = getelementptr inbounds nuw %struct.StateFileChunk, ptr %72, i32 0, i32 2
  %74 = load ptr, ptr %73, align 8
  store ptr %74, ptr %4, align 8
  br label %61, !llvm.loop !16

75:                                               ; preds = %61
  call void @XLogSetRecordFlags(i8 noundef zeroext 1)
  %76 = call i64 @XLogInsert(i8 noundef zeroext 1, i8 noundef zeroext 16)
  %77 = load ptr, ptr %2, align 8
  %78 = getelementptr inbounds nuw %struct.GlobalTransactionData, ptr %77, i32 0, i32 4
  store i64 %76, ptr %78, align 8
  %79 = load i8, ptr %5, align 1, !range !4, !noundef !5
  %80 = trunc i8 %79 to i1
  br i1 %80, label %81, label %86

81:                                               ; preds = %75
  %82 = load i64, ptr @replorigin_session_origin_lsn, align 8
  %83 = load ptr, ptr %2, align 8
  %84 = getelementptr inbounds nuw %struct.GlobalTransactionData, ptr %83, i32 0, i32 4
  %85 = load i64, ptr %84, align 8
  call void @replorigin_session_advance(i64 noundef %82, i64 noundef %85)
  br label %86

86:                                               ; preds = %81, %75
  %87 = load ptr, ptr %2, align 8
  %88 = getelementptr inbounds nuw %struct.GlobalTransactionData, ptr %87, i32 0, i32 4
  %89 = load i64, ptr %88, align 8
  call void @XLogFlush(i64 noundef %89)
  %90 = load i64, ptr @ProcLastRecPtr, align 8
  %91 = load ptr, ptr %2, align 8
  %92 = getelementptr inbounds nuw %struct.GlobalTransactionData, ptr %91, i32 0, i32 3
  store i64 %90, ptr %92, align 8
  %93 = load ptr, ptr %2, align 8
  call void @MarkAsPrepared(ptr noundef %93, i1 noundef zeroext false)
  %94 = load ptr, ptr @MyProc, align 8
  %95 = getelementptr inbounds nuw %struct.PGPROC, ptr %94, i32 0, i32 24
  %96 = load i32, ptr %95, align 8
  %97 = and i32 %96, -2
  store i32 %97, ptr %95, align 8
  %98 = load ptr, ptr %2, align 8
  store ptr %98, ptr @MyLockedGxact, align 8
  br label %99

99:                                               ; preds = %86
  %100 = load volatile i32, ptr @CritSectionCount, align 4
  %101 = add i32 %100, -1
  store volatile i32 %101, ptr @CritSectionCount, align 4
  br label %102

102:                                              ; preds = %99
  br label %103

103:                                              ; preds = %102
  %104 = load ptr, ptr %2, align 8
  %105 = getelementptr inbounds nuw %struct.GlobalTransactionData, ptr %104, i32 0, i32 4
  %106 = load i64, ptr %105, align 8
  call void @SyncRepWaitForLSN(i64 noundef %106, i1 noundef zeroext false)
  store ptr null, ptr @records, align 8
  store ptr null, ptr getelementptr inbounds nuw (%struct.xllist, ptr @records, i32 0, i32 1), align 8
  store i32 0, ptr getelementptr inbounds nuw (%struct.xllist, ptr @records, i32 0, i32 2), align 8
  call void @llvm.lifetime.end.p0(i64 1, ptr %5) #12
  call void @llvm.lifetime.end.p0(i64 8, ptr %4) #12
  call void @llvm.lifetime.end.p0(i64 8, ptr %3) #12
  ret void
}