; Function Attrs: nounwind uwtable
define dso_local void @EndPrepare(ptr noundef %0) local_unnamed_addr #0 {
  %2 = load i32, ptr @records.3, align 4
  %3 = icmp ult i32 %2, 8
  br i1 %3, label %4, label %._crit_edge.i.i

._crit_edge.i.i:                                  ; preds = %1
  %.pre.i.i = load ptr, ptr @records.1, align 8
  %.pre8.i.i = load ptr, ptr %.pre.i.i, align 8
  br label %RegisterTwoPhaseRecord.exit

4:                                                ; preds = %1
  %5 = tail call ptr @palloc0(i64 noundef 24) #14
  %6 = load ptr, ptr @records.1, align 8
  %7 = getelementptr inbounds nuw i8, ptr %6, i64 16
  store ptr %5, ptr %7, align 8
  store ptr %5, ptr @records.1, align 8
  %8 = getelementptr inbounds nuw i8, ptr %5, i64 8
  store i32 0, ptr %8, align 8
  %9 = getelementptr inbounds nuw i8, ptr %5, i64 16
  store ptr null, ptr %9, align 8
  %10 = load i32, ptr @records.2, align 8
  %11 = add i32 %10, 1
  store i32 %11, ptr @records.2, align 8
  store i32 512, ptr @records.3, align 4
  %12 = tail call ptr @palloc(i64 noundef 512) #14
  %13 = load ptr, ptr @records.1, align 8
  store ptr %12, ptr %13, align 8
  %.pre9.i.i = load i32, ptr @records.3, align 4
  br label %RegisterTwoPhaseRecord.exit

RegisterTwoPhaseRecord.exit:                      ; preds = %._crit_edge.i.i, %4
  %14 = phi i32 [ %2, %._crit_edge.i.i ], [ %.pre9.i.i, %4 ]
  %15 = phi ptr [ %.pre8.i.i, %._crit_edge.i.i ], [ %12, %4 ]
  %.pre.i6.i = phi ptr [ %.pre.i.i, %._crit_edge.i.i ], [ %13, %4 ]
  %16 = getelementptr inbounds nuw i8, ptr %.pre.i6.i, i64 8
  %17 = load i32, ptr %16, align 8
  %18 = zext i32 %17 to i64
  %19 = getelementptr inbounds nuw i8, ptr %15, i64 %18
  store i32 0, ptr %19, align 1
  %.sroa.4.0..sroa_idx.i = getelementptr inbounds nuw i8, ptr %19, i64 4
  store i8 0, ptr %.sroa.4.0..sroa_idx.i, align 1
  %.sroa.510.0..sroa_idx.i = getelementptr inbounds nuw i8, ptr %19, i64 6
  store i16 0, ptr %.sroa.510.0..sroa_idx.i, align 1
  %20 = load i32, ptr %16, align 8
  %21 = add i32 %20, 8
  store i32 %21, ptr %16, align 8
  %22 = add i32 %14, -8
  store i32 %22, ptr @records.3, align 4
  %23 = load i32, ptr @records.4, align 8
  %24 = add i32 %23, 8
  store i32 %24, ptr @records.4, align 8
  %25 = load ptr, ptr @records.0, align 8
  %26 = load ptr, ptr %25, align 8
  %27 = add i32 %23, 12
  %28 = getelementptr inbounds nuw i8, ptr %26, i64 4
  store i32 %27, ptr %28, align 4
  %29 = load i16, ptr @replorigin_session_origin, align 2
  %30 = add i16 %29, -1
  %31 = icmp ult i16 %30, -2
  br i1 %31, label %32, label %37

32:                                               ; preds = %RegisterTwoPhaseRecord.exit
  %33 = load i64, ptr @replorigin_session_origin_lsn, align 8
  %34 = getelementptr inbounds nuw i8, ptr %26, i64 56
  store i64 %33, ptr %34, align 8
  %35 = load i64, ptr @replorigin_session_origin_timestamp, align 8
  %36 = getelementptr inbounds nuw i8, ptr %26, i64 64
  store i64 %35, ptr %36, align 8
  br label %37

37:                                               ; preds = %32, %RegisterTwoPhaseRecord.exit
  %38 = icmp ugt i32 %27, 1073741823
  br i1 %38, label %39, label %43

39:                                               ; preds = %37
  %40 = tail call zeroext i1 @errstart_cold(i32 noundef 21, ptr noundef null) #15
  tail call void @llvm.assume(i1 %40)
  %41 = tail call i32 @errcode(i32 noundef 261) #14
  %42 = tail call i32 (ptr, ...) @errmsg(ptr noundef nonnull @.str.13) #14
  tail call void @errfinish(ptr noundef nonnull @.str.2, i32 noundef 1174, ptr noundef nonnull @__func__.EndPrepare) #14
  unreachable

43:                                               ; preds = %37
  %44 = load i32, ptr @records.2, align 8
  tail call void @XLogEnsureRecordSpace(i32 noundef 0, i32 noundef %44) #14
  %45 = load volatile i32, ptr @CritSectionCount, align 4
  %46 = add i32 %45, 1
  store volatile i32 %46, ptr @CritSectionCount, align 4
  %47 = load ptr, ptr @MyProc, align 8
  %48 = getelementptr inbounds nuw i8, ptr %47, i64 144
  %49 = load i32, ptr %48, align 8
  %50 = or i32 %49, 1
  store i32 %50, ptr %48, align 8
  tail call void @XLogBeginInsert() #14
  %.016 = load ptr, ptr @records.0, align 8
  %.not17 = icmp eq ptr %.016, null
  br i1 %.not17, label %._crit_edge, label %.lr.ph

.lr.ph:                                           ; preds = %43, %.lr.ph
  %.018 = phi ptr [ %.0, %.lr.ph ], [ %.016, %43 ]
  %51 = load ptr, ptr %.018, align 8
  %52 = getelementptr inbounds nuw i8, ptr %.018, i64 8
  %53 = load i32, ptr %52, align 8
  tail call void @XLogRegisterData(ptr noundef %51, i32 noundef %53) #14
  %54 = getelementptr inbounds nuw i8, ptr %.018, i64 16
  %.0 = load ptr, ptr %54, align 8
  %.not = icmp eq ptr %.0, null
  br i1 %.not, label %._crit_edge, label %.lr.ph, !llvm.loop !15

._crit_edge:                                      ; preds = %.lr.ph, %43
  tail call void @XLogSetRecordFlags(i8 noundef zeroext 1) #14
  %55 = tail call i64 @XLogInsert(i8 noundef zeroext 1, i8 noundef zeroext 16) #14
  %56 = getelementptr inbounds nuw i8, ptr %0, i64 32
  store i64 %55, ptr %56, align 8
  br i1 %31, label %57, label %59

57:                                               ; preds = %._crit_edge
  %58 = load i64, ptr @replorigin_session_origin_lsn, align 8
  tail call void @replorigin_session_advance(i64 noundef %58, i64 noundef %55) #14
  %.pre = load i64, ptr %56, align 8
  br label %59

59:                                               ; preds = %57, %._crit_edge
  %60 = phi i64 [ %.pre, %57 ], [ %55, %._crit_edge ]
  tail call void @XLogFlush(i64 noundef %60) #14
  %61 = load i64, ptr @ProcLastRecPtr, align 8
  %62 = getelementptr inbounds nuw i8, ptr %0, i64 24
  store i64 %61, ptr %62, align 8
  %63 = load ptr, ptr @MainLWLockArray, align 8
  %64 = getelementptr inbounds nuw i8, ptr %63, i64 2304
  %65 = tail call zeroext i1 @LWLockAcquire(ptr noundef nonnull %64, i32 noundef 0) #14
  %66 = getelementptr inbounds nuw i8, ptr %0, i64 52
  store i8 1, ptr %66, align 4
  %67 = load ptr, ptr @MainLWLockArray, align 8
  %68 = getelementptr inbounds nuw i8, ptr %67, i64 2304
  tail call void @LWLockRelease(ptr noundef nonnull %68) #14
  %69 = load ptr, ptr @ProcGlobal, align 8
  %70 = load ptr, ptr %69, align 8
  %71 = getelementptr inbounds nuw i8, ptr %0, i64 8
  %72 = load i32, ptr %71, align 8
  %73 = sext i32 %72 to i64
  %74 = getelementptr inbounds %struct.PGPROC, ptr %70, i64 %73
  tail call void @ProcArrayAdd(ptr noundef %74) #14
  %75 = load ptr, ptr @MyProc, align 8
  %76 = getelementptr inbounds nuw i8, ptr %75, i64 144
  %77 = load i32, ptr %76, align 8
  %78 = and i32 %77, -2
  store i32 %78, ptr %76, align 8
  store ptr %0, ptr @MyLockedGxact, align 8
  %79 = load volatile i32, ptr @CritSectionCount, align 4
  %80 = add i32 %79, -1
  store volatile i32 %80, ptr @CritSectionCount, align 4
  %81 = load i64, ptr %56, align 8
  tail call void @SyncRepWaitForLSN(i64 noundef %81, i1 noundef zeroext false) #14
  store ptr null, ptr @records.0, align 8
  store ptr null, ptr @records.1, align 8
  store i32 0, ptr @records.2, align 8
  ret void
}